target datalayout = "e-m:e-p270:32:32-p271:32:32-p272:64:64-i64:64-i128:128-f80:128-n8:16:32:64-S128"
target triple = "x86_64-pc-linux-gnu"

%struct.FormData_pg_cast = type { i32, i32, i32, i32, i8, i8 }
%struct.nameData = type { [64 x i8] }
%struct.HeapTupleData = type { i32, %struct.ItemPointerData, i32, ptr }
%struct.ItemPointerData = type { %struct.BlockIdData, i16 }
%struct.BlockIdData = type { i16, i16 }
%struct.HeapTupleHeaderData = type { %union.anon, %struct.ItemPointerData, i16, i16, i8, [0 x i8] }
%union.anon = type { %struct.HeapTupleFields }
%struct.HeapTupleFields = type { i32, i32, %union.anon.0 }
%union.anon.0 = type { i32 }
%struct.FormData_pg_type = type { i32, %struct.nameData, i32, i32, i16, i8, i8, i8, i8, i8, i8, i32, i32, i32, i32, i32, i32, i32, i32, i32, i32, i32, i8, i8, i8, i32, i32, i32, i32 }

; Function Attrs: inlinehint nounwind uwtable
define internal i64 @ObjectIdGetDatum(i32 noundef %0) #3 {
  %2 = alloca i32, align 4
  store i32 %0, ptr %2, align 4
  %3 = load i32, ptr %2, align 4
  %4 = zext i32 %3 to i64
  ret i64 %4
}

; Function Attrs: inlinehint nounwind uwtable
define internal ptr @GETSTRUCT(ptr noundef %0) #3 {
  %2 = alloca ptr, align 8
  store ptr %0, ptr %2, align 8
  %3 = load ptr, ptr %2, align 8
  %4 = getelementptr inbounds nuw %struct.HeapTupleData, ptr %3, i32 0, i32 3
  %5 = load ptr, ptr %4, align 8
  %6 = load ptr, ptr %2, align 8
  %7 = getelementptr inbounds nuw %struct.HeapTupleData, ptr %6, i32 0, i32 3
  %8 = load ptr, ptr %7, align 8
  %9 = getelementptr inbounds nuw %struct.HeapTupleHeaderData, ptr %8, i32 0, i32 4
  %10 = load i8, ptr %9, align 2
  %11 = zext i8 %10 to i32
  %12 = sext i32 %11 to i64
  %13 = getelementptr inbounds i8, ptr %5, i64 %12
  ret ptr %13
}

; Function Attrs: nounwind uwtable
define dso_local i32 @find_typmod_coercion_function(i32 noundef %0, ptr noundef %1) #0 {
  %3 = alloca i32, align 4
  %4 = alloca ptr, align 8
  %5 = alloca i32, align 4
  %6 = alloca ptr, align 8
  %7 = alloca ptr, align 8
  %8 = alloca ptr, align 8
  %9 = alloca ptr, align 8
  store i32 %0, ptr %3, align 4
  store ptr %1, ptr %4, align 8
  call void @llvm.lifetime.start.p0(i64 4, ptr %5) #6
  call void @llvm.lifetime.start.p0(i64 8, ptr %6) #6
  call void @llvm.lifetime.start.p0(i64 8, ptr %7) #6
  call void @llvm.lifetime.start.p0(i64 8, ptr %8) #6
  %10 = load ptr, ptr %4, align 8
  store i32 0, ptr %10, align 4
  store i32 1, ptr %5, align 4
  %11 = load i32, ptr %3, align 4
  %12 = call ptr @typeidType(i32 noundef %11)
  store ptr %12, ptr %6, align 8
  %13 = load ptr, ptr %6, align 8
  %14 = call ptr @GETSTRUCT(ptr noundef %13)
  store ptr %14, ptr %7, align 8
  %15 = load ptr, ptr %7, align 8
  %16 = getelementptr inbounds nuw %struct.FormData_pg_type, ptr %15, i32 0, i32 13
  %17 = load i32, ptr %16, align 4
  %18 = icmp ne i32 %17, 0
  br i1 %18, label %19, label %28

19:                                               ; preds = %2
  %20 = load ptr, ptr %7, align 8
  %21 = getelementptr inbounds nuw %struct.FormData_pg_type, ptr %20, i32 0, i32 12
  %22 = load i32, ptr %21, align 4
  %23 = icmp eq i32 %22, 6179
  br i1 %23, label %24, label %28

24:                                               ; preds = %19
  %25 = load ptr, ptr %7, align 8
  %26 = getelementptr inbounds nuw %struct.FormData_pg_type, ptr %25, i32 0, i32 13
  %27 = load i32, ptr %26, align 4
  store i32 %27, ptr %3, align 4
  store i32 3, ptr %5, align 4
  br label %28

28:                                               ; preds = %24, %19, %2
  %29 = load ptr, ptr %6, align 8
  call void @ReleaseSysCache(ptr noundef %29)
  %30 = load i32, ptr %3, align 4
  %31 = call i64 @ObjectIdGetDatum(i32 noundef %30)
  %32 = load i32, ptr %3, align 4
  %33 = call i64 @ObjectIdGetDatum(i32 noundef %32)
  %34 = call ptr @SearchSysCache2(i32 noundef 12, i64 noundef %31, i64 noundef %33)
  store ptr %34, ptr %8, align 8
  %35 = load ptr, ptr %8, align 8
  %36 = icmp ne ptr %35, null
  br i1 %36, label %37, label %45

37:                                               ; preds = %28
  call void @llvm.lifetime.start.p0(i64 8, ptr %9) #6
  %38 = load ptr, ptr %8, align 8
  %39 = call ptr @GETSTRUCT(ptr noundef %38)
  store ptr %39, ptr %9, align 8
  %40 = load ptr, ptr %9, align 8
  %41 = getelementptr inbounds nuw %struct.FormData_pg_cast, ptr %40, i32 0, i32 3
  %42 = load i32, ptr %41, align 4
  %43 = load ptr, ptr %4, align 8
  store i32 %42, ptr %43, align 4
  %44 = load ptr, ptr %8, align 8
  call void @ReleaseSysCache(ptr noundef %44)
  call void @llvm.lifetime.end.p0(i64 8, ptr %9) #6
  br label %45

45:                                               ; preds = %37, %28
  %46 = load ptr, ptr %4, align 8
  %47 = load i32, ptr %46, align 4
  %48 = icmp ne i32 %47, 0
  br i1 %48, label %50, label %49

49:                                               ; preds = %45
  store i32 0, ptr %5, align 4
  br label %50

50:                                               ; preds = %49, %45
  %51 = load i32, ptr %5, align 4
  call void @llvm.lifetime.end.p0(i64 8, ptr %8) #6
  call void @llvm.lifetime.end.p0(i64 8, ptr %7) #6
  call void @llvm.lifetime.end.p0(i64 8, ptr %6) #6
  call void @llvm.lifetime.end.p0(i64 4, ptr %5) #6
  ret i32 %51
}

; Function Attrs: nounwind uwtable
define internal ptr @coerce_type_typmod(ptr noundef %0, i32 noundef %1, i32 noundef %2, i32 noundef %3, i32 noundef %4, i32 noundef %5, i1 noundef zeroext %6) #0 {
  %8 = alloca ptr, align 8
  %9 = alloca ptr, align 8
  %10 = alloca i32, align 4
  %11 = alloca i32, align 4
  %12 = alloca i32, align 4
  %13 = alloca i32, align 4
  %14 = alloca i32, align 4
  %15 = alloca i8, align 1
  %16 = alloca i32, align 4
  %17 = alloca i32, align 4
  %18 = alloca i32, align 4
  store ptr %0, ptr %9, align 8
  store i32 %1, ptr %10, align 4
  store i32 %2, ptr %11, align 4
  store i32 %3, ptr %12, align 4
  store i32 %4, ptr %13, align 4
  store i32 %5, ptr %14, align 4
  %19 = zext i1 %6 to i8
  store i8 %19, ptr %15, align 1
  call void @llvm.lifetime.start.p0(i64 4, ptr %16) #6
  call void @llvm.lifetime.start.p0(i64 4, ptr %17) #6
  %20 = load i32, ptr %11, align 4
  %21 = load ptr, ptr %9, align 8
  %22 = call i32 @exprTypmod(ptr noundef %21)
  %23 = icmp eq i32 %20, %22
  br i1 %23, label %24, label %26

24:                                               ; preds = %7
  %25 = load ptr, ptr %9, align 8
  store ptr %25, ptr %8, align 8
  store i32 1, ptr %18, align 4
  br label %62

26:                                               ; preds = %7
  %27 = load i8, ptr %15, align 1, !range !7, !noundef !8
  %28 = trunc i8 %27 to i1
  br i1 %28, label %29, label %31

29:                                               ; preds = %26
  %30 = load ptr, ptr %9, align 8
  call void @hide_coercion_node(ptr noundef %30)
  br label %31

31:                                               ; preds = %29, %26
  %32 = load i32, ptr %11, align 4
  %33 = icmp slt i32 %32, 0
  br i1 %33, label %34, label %35

34:                                               ; preds = %31
  store i32 0, ptr %16, align 4
  br label %38

35:                                               ; preds = %31
  %36 = load i32, ptr %10, align 4
  %37 = call i32 @find_typmod_coercion_function(i32 noundef %36, ptr noundef %17)
  store i32 %37, ptr %16, align 4
  br label %38

38:                                               ; preds = %35, %34
  %39 = load i32, ptr %16, align 4
  %40 = icmp ne i32 %39, 0
  br i1 %40, label %41, label %51

41:                                               ; preds = %38
  %42 = load ptr, ptr %9, align 8
  %43 = load i32, ptr %16, align 4
  %44 = load i32, ptr %17, align 4
  %45 = load i32, ptr %10, align 4
  %46 = load i32, ptr %11, align 4
  %47 = load i32, ptr %12, align 4
  %48 = load i32, ptr %13, align 4
  %49 = load i32, ptr %14, align 4
  %50 = call ptr @build_coercion_expression(ptr noundef %42, i32 noundef %43, i32 noundef %44, i32 noundef %45, i32 noundef %46, i32 noundef %47, i32 noundef %48, i32 noundef %49)
  store ptr %50, ptr %9, align 8
  br label %60

51:                                               ; preds = %38
  %52 = load ptr, ptr %9, align 8
  %53 = load i32, ptr %10, align 4
  %54 = load i32, ptr %11, align 4
  %55 = load ptr, ptr %9, align 8
  %56 = call i32 @exprCollation(ptr noundef %55)
  %57 = load i32, ptr %13, align 4
  %58 = load i32, ptr %14, align 4
  %59 = call ptr @applyRelabelType(ptr noundef %52, i32 noundef %53, i32 noundef %54, i32 noundef %56, i32 noundef %57, i32 noundef %58, i1 noundef zeroext false)
  store ptr %59, ptr %9, align 8
  br label %60

60:                                               ; preds = %51, %41
  %61 = load ptr, ptr %9, align 8
  store ptr %61, ptr %8, align 8
  store i32 1, ptr %18, align 4
  br label %62

62:                                               ; preds = %60, %24
  call void @llvm.lifetime.end.p0(i64 4, ptr %17) #6
  call void @llvm.lifetime.end.p0(i64 4, ptr %16) #6
  %63 = load ptr, ptr %8, align 8
  ret ptr %63
}