; Function Attrs: nounwind uwtable
define internal fastcc ptr @coerce_type_typmod(ptr noundef %0, i32 noundef %1, i32 noundef %2, i32 noundef %3, i32 noundef %4, i32 noundef %5, i1 noundef zeroext %6) unnamed_addr #0 {
  %8 = tail call i32 @exprTypmod(ptr noundef %0) #5
  %9 = icmp eq i32 %2, %8
  br i1 %9, label %41, label %10

10:                                               ; preds = %7
  br i1 %6, label %11, label %12

11:                                               ; preds = %10
  tail call fastcc void @hide_coercion_node(ptr noundef %0)
  br label %12

12:                                               ; preds = %11, %10
  %13 = icmp slt i32 %2, 0
  br i1 %13, label %find_typmod_coercion_function.exit.thread, label %14

14:                                               ; preds = %12
  %15 = tail call ptr @typeidType(i32 noundef %1) #5
  %16 = getelementptr i8, ptr %15, i64 16
  %.val22.i = load ptr, ptr %16, align 8
  %17 = getelementptr inbounds nuw i8, ptr %.val22.i, i64 22
  %18 = load i8, ptr %17, align 2
  %19 = zext i8 %18 to i64
  %20 = getelementptr inbounds nuw i8, ptr %.val22.i, i64 %19
  %21 = getelementptr inbounds nuw i8, ptr %20, i64 92
  %22 = load i32, ptr %21, align 4
  %.not.i = icmp eq i32 %22, 0
  br i1 %.not.i, label %27, label %23

23:                                               ; preds = %14
  %24 = getelementptr inbounds nuw i8, ptr %20, i64 88
  %25 = load i32, ptr %24, align 4
  %26 = icmp eq i32 %25, 6179
  %spec.select.i = select i1 %26, i32 3, i32 1
  %spec.select20.i = select i1 %26, i32 %22, i32 %1
  br label %27

27:                                               ; preds = %23, %14
  %.015.i = phi i32 [ 1, %14 ], [ %spec.select.i, %23 ]
  %.0.i = phi i32 [ %1, %14 ], [ %spec.select20.i, %23 ]
  tail call void @ReleaseSysCache(ptr noundef nonnull %15) #5
  %28 = zext i32 %.0.i to i64
  %29 = tail call ptr @SearchSysCache2(i32 noundef 12, i64 noundef %28, i64 noundef %28) #5
  %.not18.i = icmp eq ptr %29, null
  br i1 %.not18.i, label %find_typmod_coercion_function.exit.thread, label %find_typmod_coercion_function.exit

find_typmod_coercion_function.exit:               ; preds = %27
  %30 = getelementptr i8, ptr %29, i64 16
  %.val.i = load ptr, ptr %30, align 8
  %31 = getelementptr inbounds nuw i8, ptr %.val.i, i64 22
  %32 = load i8, ptr %31, align 2
  %33 = zext i8 %32 to i64
  %34 = getelementptr inbounds nuw i8, ptr %.val.i, i64 %33
  %35 = getelementptr inbounds nuw i8, ptr %34, i64 12
  %36 = load i32, ptr %35, align 4
  %.fr = freeze i32 %36
  tail call void @ReleaseSysCache(ptr noundef nonnull %29) #5
  %.not19.i = icmp eq i32 %.fr, 0
  br i1 %.not19.i, label %find_typmod_coercion_function.exit.thread, label %37

37:                                               ; preds = %find_typmod_coercion_function.exit
  %38 = tail call fastcc ptr @build_coercion_expression(ptr noundef %0, i32 noundef %.015.i, i32 noundef %.fr, i32 noundef %1, i32 noundef %2, i32 noundef %3, i32 noundef %4, i32 noundef %5)
  br label %41

find_typmod_coercion_function.exit.thread:        ; preds = %find_typmod_coercion_function.exit, %27, %12
  %39 = tail call i32 @exprCollation(ptr noundef %0) #5
  %40 = tail call ptr @applyRelabelType(ptr noundef %0, i32 noundef %1, i32 noundef %2, i32 noundef %39, i32 noundef %4, i32 noundef %5, i1 noundef zeroext false) #5
  br label %41

41:                                               ; preds = %37, %find_typmod_coercion_function.exit.thread, %7
  %.022 = phi ptr [ %0, %7 ], [ %38, %37 ], [ %40, %find_typmod_coercion_function.exit.thread ]
  ret ptr %.022
}